target datalayout = "e-m:e-p270:32:32-p271:32:32-p272:64:64-i64:64-i128:128-f80:128-n8:16:32:64-S128"
target triple = "x86_64-pc-linux-gnu"

%struct.H5S_t = type { %struct.H5S_extent_t, %struct.H5S_select_t }
%struct.H5S_extent_t = type { %struct.H5O_shared_t, i32, i32, i64, i32, ptr, ptr }
%struct.H5O_shared_t = type { i32, ptr, i32, %union.anon }
%union.anon = type { %struct.H5O_mesg_loc_t }
%struct.H5O_mesg_loc_t = type { i32, i64 }
%struct.H5S_select_t = type { ptr, i8, [32 x i64], i64, %union.anon.0 }
%union.anon.0 = type { ptr }

@H5S_init_g = global i8 0, align 1
@H5_libterm_g = external global i8, align 1
@.str.3 = private unnamed_addr constant [97 x i8] c"generated/home/dtcxzyw/WorkSpace/Projects/compilers/llvm-opt-benchmark/bench/hdf5/hdf5/src/H5S.c\00", align 1
@H5E_FUNC_g = external global i64, align 8
@H5E_CANTINIT_g = external global i64, align 8
@.str.4 = private unnamed_addr constant [32 x i8] c"interface initialization failed\00", align 1
@__func__.H5S_get_simple_extent_type = private unnamed_addr constant [27 x i8] c"H5S_get_simple_extent_type\00", align 1

; Function Attrs: nounwind uwtable
define i32 @H5S_get_simple_extent_type(ptr noundef %0) #0 {
  %2 = alloca ptr, align 8
  %3 = alloca i32, align 4
  %4 = alloca i8, align 1
  store ptr %0, ptr %2, align 8, !tbaa !13
  call void @llvm.lifetime.start.p0(i64 4, ptr %3) #7
  store i32 -1, ptr %3, align 4, !tbaa !3
  call void @llvm.lifetime.start.p0(i64 1, ptr %4) #7
  store i8 0, ptr %4, align 1, !tbaa !7
  %5 = load i8, ptr @H5S_init_g, align 1, !tbaa !7, !range !9, !noundef !10
  %6 = trunc i8 %5 to i1
  br i1 %6, label %11, label %7

7:                                                ; preds = %1
  %8 = load i8, ptr @H5_libterm_g, align 1, !tbaa !7, !range !9, !noundef !10
  %9 = trunc i8 %8 to i1
  %10 = xor i1 %9, true
  br label %11

11:                                               ; preds = %7, %1
  %12 = phi i1 [ false, %1 ], [ %10, %7 ]
  %13 = xor i1 %12, true
  %14 = xor i1 %13, true
  %15 = zext i1 %14 to i32
  %16 = sext i32 %15 to i64
  %17 = call i64 @llvm.expect.i64(i64 %16, i64 0)
  %18 = icmp ne i64 %17, 0
  br i1 %18, label %19, label %42

19:                                               ; preds = %11
  store i8 1, ptr @H5S_init_g, align 1, !tbaa !7
  %20 = call i32 @H5S__init_package()
  %21 = icmp slt i32 %20, 0
  br i1 %21, label %22, label %41

22:                                               ; preds = %19
  store i8 0, ptr @H5S_init_g, align 1, !tbaa !7
  br label %23

23:                                               ; preds = %22
  br label %24

24:                                               ; preds = %23
  br label %25

25:                                               ; preds = %24
  %26 = load i64, ptr @H5E_FUNC_g, align 8, !tbaa !11
  %27 = load i64, ptr @H5E_CANTINIT_g, align 8, !tbaa !11
  %28 = call i32 (ptr, ptr, i32, i64, i64, ptr, ...) @H5E_printf_stack(ptr noundef @.str.3, ptr noundef @__func__.H5S_get_simple_extent_type, i32 noundef 1677, i64 noundef %26, i64 noundef %27, ptr noundef @.str.4)
  br label %29

29:                                               ; preds = %25
  br label %30

30:                                               ; preds = %29
  store i8 1, ptr %4, align 1, !tbaa !7
  %31 = load i8, ptr %4, align 1, !tbaa !7, !range !9, !noundef !10
  %32 = trunc i8 %31 to i1
  %33 = zext i1 %32 to i8
  store i8 %33, ptr %4, align 1, !tbaa !7
  br label %34

34:                                               ; preds = %30
  br label %35

35:                                               ; preds = %34
  br label %36

36:                                               ; preds = %35
  store i32 -1, ptr %3, align 4, !tbaa !3
  br label %62

37:                                               ; No predecessors!
  br label %38

38:                                               ; preds = %37
  br label %39

39:                                               ; preds = %38
  br label %40

40:                                               ; preds = %39
  br label %41

41:                                               ; preds = %40, %19
  br label %42

42:                                               ; preds = %41, %11
  %43 = load i8, ptr @H5S_init_g, align 1, !tbaa !7, !range !9, !noundef !10
  %44 = trunc i8 %43 to i1
  br i1 %44, label %49, label %45

45:                                               ; preds = %42
  %46 = load i8, ptr @H5_libterm_g, align 1, !tbaa !7, !range !9, !noundef !10
  %47 = trunc i8 %46 to i1
  %48 = xor i1 %47, true
  br label %49

49:                                               ; preds = %45, %42
  %50 = phi i1 [ true, %42 ], [ %48, %45 ]
  %51 = xor i1 %50, true
  %52 = xor i1 %51, true
  %53 = zext i1 %52 to i32
  %54 = sext i32 %53 to i64
  %55 = call i64 @llvm.expect.i64(i64 %54, i64 1)
  %56 = icmp ne i64 %55, 0
  br i1 %56, label %57, label %63

57:                                               ; preds = %49
  %58 = load ptr, ptr %2, align 8, !tbaa !13
  %59 = getelementptr inbounds nuw %struct.H5S_t, ptr %58, i32 0, i32 0
  %60 = getelementptr inbounds nuw %struct.H5S_extent_t, ptr %59, i32 0, i32 1
  %61 = load i32, ptr %60, align 8, !tbaa !16
  store i32 %61, ptr %3, align 4, !tbaa !3
  br label %62

62:                                               ; preds = %57, %36
  br label %63

63:                                               ; preds = %62, %49
  %64 = load i32, ptr %3, align 4, !tbaa !3
  call void @llvm.lifetime.end.p0(i64 1, ptr %4) #7
  call void @llvm.lifetime.end.p0(i64 4, ptr %3) #7
  ret i32 %64
}