; Function Attrs: nounwind uwtable
define i32 @H5S_get_simple_extent_type(ptr noundef readonly captures(none) %0) local_unnamed_addr #0 {
  %2 = load i8, ptr @H5S_init_g, align 1, !tbaa !3, !range !7, !noundef !8
  %3 = trunc nuw i8 %2 to i1
  %4 = load i8, ptr @H5_libterm_g, align 1, !range !7
  %5 = trunc nuw i8 %4 to i1
  %6 = select i1 %3, i1 true, i1 %5
  br i1 %6, label %14, label %7, !prof !9

7:                                                ; preds = %1
  store i8 1, ptr @H5S_init_g, align 1, !tbaa !3
  %8 = tail call i32 @H5S__init_package()
  %9 = icmp slt i32 %8, 0
  br i1 %9, label %10, label %._crit_edge

._crit_edge:                                      ; preds = %7
  %.pre = load i8, ptr @H5S_init_g, align 1, !tbaa !3, !range !7
  %.pre2 = load i8, ptr @H5_libterm_g, align 1, !range !7
  %.pre3 = trunc nuw i8 %.pre to i1
  %.pre4 = trunc nuw i8 %.pre2 to i1
  br label %14

10:                                               ; preds = %7
  store i8 0, ptr @H5S_init_g, align 1, !tbaa !3
  %11 = load i64, ptr @H5E_FUNC_g, align 8, !tbaa !10
  %12 = load i64, ptr @H5E_CANTINIT_g, align 8, !tbaa !10
  %13 = tail call i32 (ptr, ptr, i32, i64, i64, ptr, ...) @H5E_printf_stack(ptr noundef nonnull @.str.3, ptr noundef nonnull @__func__.H5S_get_simple_extent_type, i32 noundef 1677, i64 noundef %11, i64 noundef %12, ptr noundef nonnull @.str.4) #10
  br label %20

14:                                               ; preds = %._crit_edge, %1
  %.pre-phi5 = phi i1 [ %.pre4, %._crit_edge ], [ %5, %1 ]
  %.pre-phi = phi i1 [ %.pre3, %._crit_edge ], [ %3, %1 ]
  %15 = xor i1 %.pre-phi5, true
  %16 = select i1 %.pre-phi, i1 true, i1 %15
  br i1 %16, label %17, label %20, !prof !9

17:                                               ; preds = %14
  %18 = getelementptr inbounds nuw i8, ptr %0, i64 40
  %19 = load i32, ptr %18, align 8, !tbaa !13
  br label %20

20:                                               ; preds = %10, %17, %14
  %.0 = phi i32 [ -1, %10 ], [ %19, %17 ], [ -1, %14 ]
  ret i32 %.0
}